target datalayout = "e-m:e-p270:32:32-p271:32:32-p272:64:64-i64:64-i128:128-f80:128-n8:16:32:64-S128"
target triple = "x86_64-pc-linux-gnu"

%struct.Gia_Man_t_ = type { ptr, ptr, i32, i32, i32, i32, ptr, ptr, i32, i32, i32, ptr, ptr, %struct.Vec_Int_t_, %struct.Vec_Int_t_, i32, i32, i32, %struct.Vec_Int_t_, ptr, ptr, ptr, i32, i32, i32, i32, ptr, ptr, ptr, ptr, ptr, i32, i32, ptr, i32, ptr, ptr, ptr, ptr, ptr, ptr, ptr, ptr, ptr, ptr, ptr, ptr, ptr, ptr, ptr, ptr, ptr, ptr, %struct.Vec_Int_t_, %struct.Vec_Int_t_, ptr, ptr, ptr, ptr, ptr, ptr, ptr, ptr, ptr, ptr, ptr, ptr, ptr, ptr, ptr, ptr, ptr, ptr, ptr, ptr, ptr, i32, float, float, ptr, ptr, i32, ptr, ptr, ptr, ptr, ptr, ptr, ptr, ptr, ptr, ptr, ptr, ptr, ptr, ptr, ptr, i64, i64, ptr, ptr, i32, i32, i32, i32, i32, i32, i32, i32, i32, i32, i32, i32, ptr, ptr, ptr, ptr, ptr, ptr, ptr, ptr, i32, i32, i32, ptr, i32, i32, ptr, ptr, ptr, ptr, ptr, ptr, i32, i32, ptr, %struct.Vec_Int_t_, %struct.Vec_Int_t_, %struct.Vec_Int_t_, ptr, ptr, ptr }
%struct.Vec_Int_t_ = type { i32, i32, ptr }

@.str.19 = private unnamed_addr constant [2 x i8] c"\0A\00", align 1
@.str.49 = private unnamed_addr constant [3 x i8] c"a+\00", align 1
@.str.50 = private unnamed_addr constant [3 x i8] c"%s\00", align 1
@.str.51 = private unnamed_addr constant [4 x i8] c" %d\00", align 1

; Function Attrs: nounwind uwtable
define internal i32 @Vec_IntEntry(ptr noundef %0, i32 noundef %1) #0 {
  %3 = alloca ptr, align 8
  %4 = alloca i32, align 4
  store ptr %0, ptr %3, align 8
  store i32 %1, ptr %4, align 4
  %5 = load ptr, ptr %3, align 8
  %6 = getelementptr inbounds %struct.Vec_Int_t_, ptr %5, i32 0, i32 2
  %7 = load ptr, ptr %6, align 8
  %8 = load i32, ptr %4, align 4
  %9 = sext i32 %8 to i64
  %10 = getelementptr inbounds i32, ptr %7, i64 %9
  %11 = load i32, ptr %10, align 4
  ret i32 %11
}

; Function Attrs: nounwind uwtable
define internal i32 @Gia_ObjLutSize(ptr noundef %0, i32 noundef %1) #0 {
  %3 = alloca ptr, align 8
  %4 = alloca i32, align 4
  store ptr %0, ptr %3, align 8
  store i32 %1, ptr %4, align 4
  %5 = load ptr, ptr %3, align 8
  %6 = getelementptr inbounds %struct.Gia_Man_t_, ptr %5, i32 0, i32 37
  %7 = load ptr, ptr %6, align 8
  %8 = load ptr, ptr %3, align 8
  %9 = getelementptr inbounds %struct.Gia_Man_t_, ptr %8, i32 0, i32 37
  %10 = load ptr, ptr %9, align 8
  %11 = load i32, ptr %4, align 4
  %12 = call i32 @Vec_IntEntry(ptr noundef %10, i32 noundef %11)
  %13 = call i32 @Vec_IntEntry(ptr noundef %7, i32 noundef %12)
  ret i32 %13
}

; Function Attrs: nounwind uwtable
define internal i32 @Gia_ObjIsLut(ptr noundef %0, i32 noundef %1) #0 {
  %3 = alloca ptr, align 8
  %4 = alloca i32, align 4
  store ptr %0, ptr %3, align 8
  store i32 %1, ptr %4, align 4
  %5 = load ptr, ptr %3, align 8
  %6 = getelementptr inbounds %struct.Gia_Man_t_, ptr %5, i32 0, i32 37
  %7 = load ptr, ptr %6, align 8
  %8 = load i32, ptr %4, align 4
  %9 = call i32 @Vec_IntEntry(ptr noundef %7, i32 noundef %8)
  %10 = icmp ne i32 %9, 0
  %11 = zext i1 %10 to i32
  ret i32 %11
}

; Function Attrs: nounwind uwtable
define internal i32 @Gia_ManObjNum(ptr noundef %0) #0 {
  %2 = alloca ptr, align 8
  store ptr %0, ptr %2, align 8
  %3 = load ptr, ptr %2, align 8
  %4 = getelementptr inbounds %struct.Gia_Man_t_, ptr %3, i32 0, i32 4
  %5 = load i32, ptr %4, align 8
  ret i32 %5
}

; Function Attrs: nounwind uwtable
define void @Gia_DumpLutSizeDistrib(ptr noundef %0, ptr noundef %1) #0 {
  %3 = alloca ptr, align 8
  %4 = alloca ptr, align 8
  %5 = alloca ptr, align 8
  %6 = alloca i32, align 4
  %7 = alloca [10 x i32], align 16
  store ptr %0, ptr %3, align 8
  store ptr %1, ptr %4, align 8
  %8 = load ptr, ptr %4, align 8
  %9 = call noalias ptr @fopen(ptr noundef %8, ptr noundef @.str.49)
  store ptr %9, ptr %5, align 8
  call void @llvm.memset.p0.i64(ptr align 16 %7, i8 0, i64 40, i1 false)
  store i32 1, ptr %6, align 4
  br label %10

10:                                               ; preds = %41, %2
  %11 = load i32, ptr %6, align 4
  %12 = load ptr, ptr %3, align 8
  %13 = call i32 @Gia_ManObjNum(ptr noundef %12)
  %14 = icmp slt i32 %11, %13
  br i1 %14, label %15, label %44

15:                                               ; preds = %10
  %16 = load ptr, ptr %3, align 8
  %17 = load i32, ptr %6, align 4
  %18 = call i32 @Gia_ObjIsLut(ptr noundef %16, i32 noundef %17)
  %19 = icmp ne i32 %18, 0
  br i1 %19, label %21, label %20

20:                                               ; preds = %15
  br label %40

21:                                               ; preds = %15
  %22 = load ptr, ptr %3, align 8
  %23 = load i32, ptr %6, align 4
  %24 = call i32 @Gia_ObjLutSize(ptr noundef %22, i32 noundef %23)
  %25 = icmp sgt i32 %24, 0
  br i1 %25, label %26, label %39

26:                                               ; preds = %21
  %27 = load ptr, ptr %3, align 8
  %28 = load i32, ptr %6, align 4
  %29 = call i32 @Gia_ObjLutSize(ptr noundef %27, i32 noundef %28)
  %30 = icmp slt i32 %29, 10
  br i1 %30, label %31, label %39

31:                                               ; preds = %26
  %32 = load ptr, ptr %3, align 8
  %33 = load i32, ptr %6, align 4
  %34 = call i32 @Gia_ObjLutSize(ptr noundef %32, i32 noundef %33)
  %35 = sext i32 %34 to i64
  %36 = getelementptr inbounds [10 x i32], ptr %7, i64 0, i64 %35
  %37 = load i32, ptr %36, align 4
  %38 = add nsw i32 %37, 1
  store i32 %38, ptr %36, align 4
  br label %39

39:                                               ; preds = %31, %26, %21
  br label %40

40:                                               ; preds = %39, %20
  br label %41

41:                                               ; preds = %40
  %42 = load i32, ptr %6, align 4
  %43 = add nsw i32 %42, 1
  store i32 %43, ptr %6, align 4
  br label %10, !llvm.loop !91

44:                                               ; preds = %10
  %45 = load ptr, ptr %5, align 8
  %46 = load ptr, ptr %3, align 8
  %47 = getelementptr inbounds %struct.Gia_Man_t_, ptr %46, i32 0, i32 0
  %48 = load ptr, ptr %47, align 8
  %49 = call i32 (ptr, ptr, ...) @fprintf(ptr noundef %45, ptr noundef @.str.50, ptr noundef %48) #11
  store i32 1, ptr %6, align 4
  br label %50

50:                                               ; preds = %60, %44
  %51 = load i32, ptr %6, align 4
  %52 = icmp slt i32 %51, 10
  br i1 %52, label %53, label %63

53:                                               ; preds = %50
  %54 = load ptr, ptr %5, align 8
  %55 = load i32, ptr %6, align 4
  %56 = sext i32 %55 to i64
  %57 = getelementptr inbounds [10 x i32], ptr %7, i64 0, i64 %56
  %58 = load i32, ptr %57, align 4
  %59 = call i32 (ptr, ptr, ...) @fprintf(ptr noundef %54, ptr noundef @.str.51, i32 noundef %58) #11
  br label %60

60:                                               ; preds = %53
  %61 = load i32, ptr %6, align 4
  %62 = add nsw i32 %61, 1
  store i32 %62, ptr %6, align 4
  br label %50, !llvm.loop !92

63:                                               ; preds = %50
  %64 = load ptr, ptr %5, align 8
  %65 = call i32 (ptr, ptr, ...) @fprintf(ptr noundef %64, ptr noundef @.str.19) #11
  %66 = load ptr, ptr %5, align 8
  %67 = call i32 @fclose(ptr noundef %66)
  ret void
}