; Function Attrs: nofree nounwind uwtable
define void @Gia_DumpLutSizeDistrib(ptr noundef readonly captures(none) %0, ptr noundef readonly captures(none) %1) local_unnamed_addr #15 {
  %3 = alloca [10 x i32], align 16
  %4 = tail call noalias ptr @fopen(ptr noundef %1, ptr noundef nonnull @.str.49)
  call void @llvm.memset.p0.i64(ptr noundef nonnull align 16 dereferenceable(40) %3, i8 0, i64 40, i1 false)
  %5 = getelementptr i8, ptr %0, i64 24
  %.val = load i32, ptr %5, align 8
  %6 = icmp sgt i32 %.val, 1
  br i1 %6, label %.lr.ph, label %._crit_edge

.lr.ph:                                           ; preds = %2
  %7 = getelementptr i8, ptr %0, i64 264
  %.val19 = load ptr, ptr %7, align 8
  %8 = getelementptr i8, ptr %.val19, i64 8
  %.val19.val = load ptr, ptr %8, align 8
  %wide.trip.count = zext nneg i32 %.val to i64
  br label %9

9:                                                ; preds = %.lr.ph, %22
  %indvars.iv = phi i64 [ 1, %.lr.ph ], [ %indvars.iv.next, %22 ]
  %10 = getelementptr inbounds nuw i32, ptr %.val19.val, i64 %indvars.iv
  %11 = load i32, ptr %10, align 4
  %.not23 = icmp eq i32 %11, 0
  br i1 %.not23, label %22, label %12

12:                                               ; preds = %9
  %13 = sext i32 %11 to i64
  %14 = getelementptr inbounds i32, ptr %.val19.val, i64 %13
  %15 = load i32, ptr %14, align 4
  %16 = add i32 %15, -1
  %or.cond = icmp ult i32 %16, 9
  br i1 %or.cond, label %17, label %22

17:                                               ; preds = %12
  %18 = zext nneg i32 %15 to i64
  %19 = getelementptr inbounds nuw [10 x i32], ptr %3, i64 0, i64 %18
  %20 = load i32, ptr %19, align 4
  %21 = add nsw i32 %20, 1
  store i32 %21, ptr %19, align 4
  br label %22

22:                                               ; preds = %9, %17, %12
  %indvars.iv.next = add nuw nsw i64 %indvars.iv, 1
  %exitcond.not = icmp eq i64 %indvars.iv.next, %wide.trip.count
  br i1 %exitcond.not, label %._crit_edge, label %9, !llvm.loop !89

._crit_edge:                                      ; preds = %22, %2
  %23 = load ptr, ptr %0, align 8
  %fputs = tail call i32 @fputs(ptr %23, ptr %4)
  br label %24

24:                                               ; preds = %._crit_edge, %24
  %indvars.iv27 = phi i64 [ 1, %._crit_edge ], [ %indvars.iv.next28, %24 ]
  %25 = getelementptr inbounds nuw [10 x i32], ptr %3, i64 0, i64 %indvars.iv27
  %26 = load i32, ptr %25, align 4
  %27 = tail call i32 (ptr, ptr, ...) @fprintf(ptr noundef %4, ptr noundef nonnull @.str.51, i32 noundef %26) #36
  %indvars.iv.next28 = add nuw nsw i64 %indvars.iv27, 1
  %exitcond30.not = icmp eq i64 %indvars.iv.next28, 10
  br i1 %exitcond30.not, label %28, label %24, !llvm.loop !90

28:                                               ; preds = %24
  %fputc = tail call i32 @fputc(i32 10, ptr %4)
  %29 = tail call i32 @fclose(ptr noundef %4)
  ret void
}